; Function Attrs: nounwind uwtable
define internal fastcc void @_action_process_button(ptr noundef %0, i32 noundef %1) unnamed_addr #0 {
  %3 = load atomic i64, ptr @dt_bh_get_type.static_g_define_type_id seq_cst, align 8
  %.not.i.i = icmp eq i64 %3, 0
  br i1 %.not.i.i, label %4, label %DT_BAUHAUS_WIDGET.exit

4:                                                ; preds = %2
  %5 = tail call i32 @g_once_init_enter(ptr noundef nonnull @dt_bh_get_type.static_g_define_type_id) #19
  %.not4.i.i = icmp eq i32 %5, 0
  br i1 %.not4.i.i, label %DT_BAUHAUS_WIDGET.exit, label %6

6:                                                ; preds = %4
  %7 = tail call fastcc i64 @dt_bh_get_type_once()
  tail call void @g_once_init_leave(ptr noundef nonnull @dt_bh_get_type.static_g_define_type_id, i64 noundef %7) #19
  br label %DT_BAUHAUS_WIDGET.exit

DT_BAUHAUS_WIDGET.exit:                           ; preds = %2, %4, %6
  %8 = load i64, ptr @dt_bh_get_type.static_g_define_type_id, align 8, !tbaa !6
  %9 = tail call ptr @g_type_check_instance_cast(ptr noundef %0, i64 noundef %8) #19
  %10 = getelementptr inbounds nuw i8, ptr %9, i64 360
  %11 = load i32, ptr %10, align 8, !tbaa !197
  %12 = and i32 %11, 16
  %.not = icmp eq i32 %12, 0
  %13 = select i1 %.not, i32 2, i32 1
  %.not10 = icmp eq i32 %1, %13
  br i1 %.not10, label %15, label %14

14:                                               ; preds = %DT_BAUHAUS_WIDGET.exit
  tail call void @dt_bauhaus_widget_press_quad(ptr noundef %0)
  tail call void @dt_bauhaus_widget_release_quad(ptr noundef %0)
  br label %15

15:                                               ; preds = %14, %DT_BAUHAUS_WIDGET.exit
  %16 = getelementptr inbounds nuw i8, ptr %9, i64 376
  %17 = load i32, ptr %16, align 8, !tbaa !216
  %.not11 = icmp eq i32 %17, 0
  br i1 %.not11, label %21, label %18

18:                                               ; preds = %15
  %19 = load i32, ptr %10, align 8, !tbaa !197
  %20 = and i32 %19, 16
  %.not12 = icmp eq i32 %20, 0
  %.str.79..str.78 = select i1 %.not12, ptr @.str.79, ptr @.str.78
  br label %21

21:                                               ; preds = %15, %18
  %.str.78.sink = phi ptr [ %.str.79..str.78, %18 ], [ @.str.80, %15 ]
  %22 = tail call ptr @dcgettext(ptr noundef null, ptr noundef nonnull %.str.78.sink, i32 noundef 5) #19
  %23 = getelementptr inbounds nuw i8, ptr %9, i64 48
  %24 = load ptr, ptr %23, align 8, !tbaa !161
  tail call void (ptr, ptr, ptr, ...) @dt_action_widget_toast(ptr noundef %24, ptr noundef %0, ptr noundef %22) #19
  tail call void @gtk_widget_queue_draw(ptr noundef %0) #19
  ret void
}